target datalayout = "e-m:e-p270:32:32-p271:32:32-p272:64:64-i64:64-i128:128-f80:128-n8:16:32:64-S128"
target triple = "x86_64-pc-linux-gnu"

%struct.bignum_st = type { ptr, i32, i32, i32, i32 }

; Function Attrs: nounwind uwtable
define hidden ptr @BN_copy(ptr noundef %0, ptr noundef %1) #0 {
  %3 = alloca ptr, align 8
  %4 = alloca ptr, align 8
  %5 = alloca ptr, align 8
  store ptr %0, ptr %4, align 8, !tbaa !6
  store ptr %1, ptr %5, align 8, !tbaa !6
  %6 = load ptr, ptr %5, align 8, !tbaa !6
  %7 = load ptr, ptr %4, align 8, !tbaa !6
  %8 = icmp eq ptr %6, %7
  br i1 %8, label %9, label %11

9:                                                ; preds = %2
  %10 = load ptr, ptr %4, align 8, !tbaa !6
  store ptr %10, ptr %3, align 8
  br label %43

11:                                               ; preds = %2
  %12 = load ptr, ptr %4, align 8, !tbaa !6
  %13 = load ptr, ptr %5, align 8, !tbaa !6
  %14 = getelementptr inbounds nuw %struct.bignum_st, ptr %13, i32 0, i32 1
  %15 = load i32, ptr %14, align 8, !tbaa !18
  %16 = sext i32 %15 to i64
  %17 = call ptr @bn_wexpand(ptr noundef %12, i64 noundef %16)
  %18 = icmp eq ptr %17, null
  br i1 %18, label %19, label %20

19:                                               ; preds = %11
  store ptr null, ptr %3, align 8
  br label %43

20:                                               ; preds = %11
  %21 = load ptr, ptr %4, align 8, !tbaa !6
  %22 = getelementptr inbounds nuw %struct.bignum_st, ptr %21, i32 0, i32 0
  %23 = load ptr, ptr %22, align 8, !tbaa !15
  %24 = load ptr, ptr %5, align 8, !tbaa !6
  %25 = getelementptr inbounds nuw %struct.bignum_st, ptr %24, i32 0, i32 0
  %26 = load ptr, ptr %25, align 8, !tbaa !15
  %27 = load ptr, ptr %5, align 8, !tbaa !6
  %28 = getelementptr inbounds nuw %struct.bignum_st, ptr %27, i32 0, i32 1
  %29 = load i32, ptr %28, align 8, !tbaa !18
  %30 = sext i32 %29 to i64
  %31 = mul i64 8, %30
  call void @llvm.memcpy.p0.p0.i64(ptr align 8 %23, ptr align 8 %26, i64 %31, i1 false)
  %32 = load ptr, ptr %5, align 8, !tbaa !6
  %33 = getelementptr inbounds nuw %struct.bignum_st, ptr %32, i32 0, i32 1
  %34 = load i32, ptr %33, align 8, !tbaa !18
  %35 = load ptr, ptr %4, align 8, !tbaa !6
  %36 = getelementptr inbounds nuw %struct.bignum_st, ptr %35, i32 0, i32 1
  store i32 %34, ptr %36, align 8, !tbaa !18
  %37 = load ptr, ptr %5, align 8, !tbaa !6
  %38 = getelementptr inbounds nuw %struct.bignum_st, ptr %37, i32 0, i32 3
  %39 = load i32, ptr %38, align 8, !tbaa !19
  %40 = load ptr, ptr %4, align 8, !tbaa !6
  %41 = getelementptr inbounds nuw %struct.bignum_st, ptr %40, i32 0, i32 3
  store i32 %39, ptr %41, align 8, !tbaa !19
  %42 = load ptr, ptr %4, align 8, !tbaa !6
  store ptr %42, ptr %3, align 8
  br label %43

43:                                               ; preds = %20, %19, %9
  %44 = load ptr, ptr %3, align 8
  ret ptr %44
}