; Function Attrs: nounwind uwtable
define hidden noundef ptr @BN_copy(ptr noundef captures(address, ret: address, provenance) %0, ptr noundef readonly captures(address) %1) local_unnamed_addr #0 {
  %3 = icmp eq ptr %1, %0
  br i1 %3, label %21, label %4

4:                                                ; preds = %2
  %5 = getelementptr inbounds nuw i8, ptr %1, i64 8
  %6 = load i32, ptr %5, align 8, !tbaa !15
  %7 = sext i32 %6 to i64
  %8 = tail call ptr @bn_wexpand(ptr noundef %0, i64 noundef %7)
  %9 = icmp eq ptr %8, null
  br i1 %9, label %21, label %10

10:                                               ; preds = %4
  %11 = load ptr, ptr %0, align 8, !tbaa !13
  %12 = load ptr, ptr %1, align 8, !tbaa !13
  %13 = load i32, ptr %5, align 8, !tbaa !15
  %14 = sext i32 %13 to i64
  %15 = shl nsw i64 %14, 3
  tail call void @llvm.memcpy.p0.p0.i64(ptr align 8 %11, ptr align 8 %12, i64 %15, i1 false)
  %16 = load i32, ptr %5, align 8, !tbaa !15
  %17 = getelementptr inbounds nuw i8, ptr %0, i64 8
  store i32 %16, ptr %17, align 8, !tbaa !15
  %18 = getelementptr inbounds nuw i8, ptr %1, i64 16
  %19 = load i32, ptr %18, align 8, !tbaa !16
  %20 = getelementptr inbounds nuw i8, ptr %0, i64 16
  store i32 %19, ptr %20, align 8, !tbaa !16
  br label %21

21:                                               ; preds = %4, %2, %10
  %.0 = phi ptr [ %0, %10 ], [ %0, %2 ], [ null, %4 ]
  ret ptr %.0
}